target datalayout = "e-m:e-p270:32:32-p271:32:32-p272:64:64-i64:64-i128:128-f80:128-n8:16:32:64-S128"
target triple = "x86_64-pc-linux-gnu"

%struct.anon.62 = type { %struct.ma_context, %struct.ma_device, %union.pthread_mutex_t, i8, i64, ptr }
%struct.ma_context = type { %struct.ma_backend_callbacks, i32, ptr, %struct.ma_log, i32, i64, ptr, %struct.ma_allocation_callbacks, %union.pthread_mutex_t, %union.pthread_mutex_t, i32, i32, i32, ptr, %union.anon.36, %union.anon.41 }
%struct.ma_backend_callbacks = type { ptr, ptr, ptr, ptr, ptr, ptr, ptr, ptr, ptr, ptr, ptr, ptr, ptr }
%struct.ma_log = type { [4 x %struct.ma_log_callback], i32, %struct.ma_allocation_callbacks, %union.pthread_mutex_t }
%struct.ma_log_callback = type { ptr, ptr }
%struct.ma_allocation_callbacks = type { ptr, ptr, ptr, ptr }
%union.anon.36 = type { %struct.anon.37 }
%struct.anon.37 = type { ptr, ptr, ptr, ptr, ptr, ptr, ptr, ptr, ptr, ptr, ptr, ptr, ptr, ptr, ptr, ptr, ptr, ptr, ptr, ptr, ptr, ptr, ptr, ptr, ptr, ptr, ptr, ptr, ptr, ptr, ptr, ptr, ptr, ptr, ptr, ptr, ptr, ptr, ptr, ptr, ptr, ptr, ptr, ptr, ptr, ptr, ptr, ptr, ptr, ptr, ptr, ptr, ptr, ptr, ptr, ptr, ptr, ptr, ptr, ptr, ptr, ptr, ptr, ptr, ptr, ptr, ptr, %union.pthread_mutex_t, i32 }
%union.anon.41 = type { %struct.anon.42 }
%struct.anon.42 = type { i32 }
%struct.ma_device = type { ptr, i32, i32, %struct.ma_atomic_device_state, ptr, ptr, ptr, ptr, %union.pthread_mutex_t, %struct.ma_event, %struct.ma_event, %struct.ma_event, i64, i32, i8, i8, i8, i8, i8, %struct.ma_atomic_float, %struct.ma_duplex_rb, %struct.anon.19, %struct.anon.21, %struct.anon.26, %union.anon.27 }
%struct.ma_atomic_device_state = type { i32 }
%struct.ma_event = type { i32, %union.pthread_mutex_t, %union.pthread_cond_t }
%union.pthread_cond_t = type { %struct.__pthread_cond_s }
%struct.__pthread_cond_s = type { %union.__atomic_wide_counter, %union.__atomic_wide_counter, [2 x i32], [2 x i32], i32, i32, [2 x i32] }
%union.__atomic_wide_counter = type { i64 }
%struct.ma_atomic_float = type { float }
%struct.ma_duplex_rb = type { %struct.ma_pcm_rb }
%struct.ma_pcm_rb = type { %struct.ma_data_source_base, %struct.ma_rb, i32, i32, i32 }
%struct.ma_data_source_base = type { ptr, i64, i64, i64, i64, ptr, ptr, ptr, i32 }
%struct.ma_rb = type { ptr, i32, i32, i32, i32, i32, i8, i8, %struct.ma_allocation_callbacks }
%struct.anon.19 = type { i32, ptr, ptr, %struct.anon.20 }
%struct.anon.20 = type { i32 }
%struct.anon.21 = type { ptr, %union.ma_device_id, [256 x i8], i32, i32, i32, [254 x i8], i32, i32, i32, [254 x i8], i32, i32, i32, i32, %struct.ma_data_converter, ptr, i32, i32, ptr, i64, i64, i64 }
%union.ma_device_id = type { %union.anon.17 }
%union.anon.17 = type { ptr, [248 x i8] }
%struct.ma_data_converter = type { i32, i32, i32, i32, i32, i32, i32, i32, %struct.ma_channel_converter, %struct.ma_resampler, i8, i8, i8, i8, i8, i8, ptr }
%struct.ma_channel_converter = type { i32, i32, i32, i32, i32, ptr, ptr, ptr, %union.anon.22, ptr, i32 }
%union.anon.22 = type { ptr }
%struct.ma_resampler = type { ptr, ptr, ptr, i32, i32, i32, i32, %union.anon.23, ptr, i32 }
%union.anon.23 = type { %struct.ma_linear_resampler }
%struct.ma_linear_resampler = type { %struct.ma_linear_resampler_config, i32, i32, i32, i32, %union.anon.24, %union.anon.25, %struct.ma_lpf, ptr, i32 }
%struct.ma_linear_resampler_config = type { i32, i32, i32, i32, i32, double }
%union.anon.24 = type { ptr }
%union.anon.25 = type { ptr }
%struct.ma_lpf = type { i32, i32, i32, i32, i32, ptr, ptr, ptr, i32 }
%struct.anon.26 = type { ptr, %union.ma_device_id, [256 x i8], i32, i32, i32, [254 x i8], i32, i32, i32, [254 x i8], i32, i32, i32, i32, %struct.ma_data_converter, ptr, i32, i32 }
%union.anon.27 = type { %struct.anon.31 }
%struct.anon.31 = type { i64, %struct.ma_event, %struct.ma_event, %struct.ma_semaphore, i32, i32, %union.ma_timer, double, i32, i32, i64, i64, %struct.ma_atomic_bool32 }
%struct.ma_semaphore = type { i32, %union.pthread_mutex_t, %union.pthread_cond_t }
%union.ma_timer = type { i64 }
%struct.ma_atomic_bool32 = type { i32 }
%union.pthread_mutex_t = type { %struct.__pthread_mutex_s }
%struct.__pthread_mutex_s = type { i32, i32, i32, i32, i32, i16, i16, %struct.__pthread_internal_list }
%struct.__pthread_internal_list = type { ptr, ptr }
%struct.rAudioBuffer = type { %struct.ma_data_converter, ptr, ptr, float, float, float, i8, i8, i8, i32, [2 x i8], i32, i32, i32, ptr, ptr, ptr }

@AUDIO = internal global { %struct.anon.62, { ptr, ptr, i32, [4 x i8] }, ptr } zeroinitializer, align 8

; Function Attrs: nounwind uwtable
define internal void @ma_mutex_unlock__posix(ptr noundef %0) #0 {
  %2 = alloca ptr, align 8
  store ptr %0, ptr %2, align 8
  %3 = load ptr, ptr %2, align 8
  %4 = call i32 @pthread_mutex_unlock(ptr noundef %3) #21
  ret void
}

; Function Attrs: nounwind uwtable
define internal zeroext i1 @IsAudioBufferPlayingInLockedState(ptr noundef %0) #0 {
  %2 = alloca ptr, align 8
  %3 = alloca i8, align 1
  store ptr %0, ptr %2, align 8
  call void @llvm.lifetime.start.p0(i64 1, ptr %3) #21
  store i8 0, ptr %3, align 1
  %4 = load ptr, ptr %2, align 8
  %5 = icmp ne ptr %4, null
  br i1 %5, label %6, label %20

6:                                                ; preds = %1
  %7 = load ptr, ptr %2, align 8
  %8 = getelementptr inbounds nuw %struct.rAudioBuffer, ptr %7, i32 0, i32 6
  %9 = load i8, ptr %8, align 4, !range !3, !noundef !4
  %10 = trunc i8 %9 to i1
  br i1 %10, label %11, label %17

11:                                               ; preds = %6
  %12 = load ptr, ptr %2, align 8
  %13 = getelementptr inbounds nuw %struct.rAudioBuffer, ptr %12, i32 0, i32 7
  %14 = load i8, ptr %13, align 1, !range !3, !noundef !4
  %15 = trunc i8 %14 to i1
  %16 = xor i1 %15, true
  br label %17

17:                                               ; preds = %11, %6
  %18 = phi i1 [ false, %6 ], [ %16, %11 ]
  %19 = zext i1 %18 to i8
  store i8 %19, ptr %3, align 1
  br label %20

20:                                               ; preds = %17, %1
  %21 = load i8, ptr %3, align 1, !range !3, !noundef !4
  %22 = trunc i8 %21 to i1
  call void @llvm.lifetime.end.p0(i64 1, ptr %3) #21
  ret i1 %22
}

; Function Attrs: nounwind uwtable
define internal void @ma_mutex_lock__posix(ptr noundef %0) #0 {
  %2 = alloca ptr, align 8
  store ptr %0, ptr %2, align 8
  %3 = load ptr, ptr %2, align 8
  %4 = call i32 @pthread_mutex_lock(ptr noundef %3) #21
  ret void
}

; Function Attrs: nounwind uwtable
define hidden void @ma_mutex_unlock(ptr noundef %0) #0 {
  %2 = alloca ptr, align 8
  store ptr %0, ptr %2, align 8
  %3 = load ptr, ptr %2, align 8
  %4 = icmp eq ptr %3, null
  br i1 %4, label %5, label %6

5:                                                ; preds = %1
  br label %8

6:                                                ; preds = %1
  %7 = load ptr, ptr %2, align 8
  call void @ma_mutex_unlock__posix(ptr noundef %7)
  br label %8

8:                                                ; preds = %6, %5
  ret void
}

; Function Attrs: nounwind uwtable
define internal void @StopAudioBufferInLockedState(ptr noundef %0) #0 {
  %2 = alloca ptr, align 8
  store ptr %0, ptr %2, align 8
  %3 = load ptr, ptr %2, align 8
  %4 = icmp ne ptr %3, null
  br i1 %4, label %5, label %24

5:                                                ; preds = %1
  %6 = load ptr, ptr %2, align 8
  %7 = call zeroext i1 @IsAudioBufferPlayingInLockedState(ptr noundef %6)
  br i1 %7, label %8, label %23

8:                                                ; preds = %5
  %9 = load ptr, ptr %2, align 8
  %10 = getelementptr inbounds nuw %struct.rAudioBuffer, ptr %9, i32 0, i32 6
  store i8 0, ptr %10, align 4
  %11 = load ptr, ptr %2, align 8
  %12 = getelementptr inbounds nuw %struct.rAudioBuffer, ptr %11, i32 0, i32 7
  store i8 0, ptr %12, align 1
  %13 = load ptr, ptr %2, align 8
  %14 = getelementptr inbounds nuw %struct.rAudioBuffer, ptr %13, i32 0, i32 12
  store i32 0, ptr %14, align 4
  %15 = load ptr, ptr %2, align 8
  %16 = getelementptr inbounds nuw %struct.rAudioBuffer, ptr %15, i32 0, i32 13
  store i32 0, ptr %16, align 8
  %17 = load ptr, ptr %2, align 8
  %18 = getelementptr inbounds nuw %struct.rAudioBuffer, ptr %17, i32 0, i32 10
  %19 = getelementptr inbounds [2 x i8], ptr %18, i64 0, i64 0
  store i8 1, ptr %19, align 4
  %20 = load ptr, ptr %2, align 8
  %21 = getelementptr inbounds nuw %struct.rAudioBuffer, ptr %20, i32 0, i32 10
  %22 = getelementptr inbounds [2 x i8], ptr %21, i64 0, i64 1
  store i8 1, ptr %22, align 1
  br label %23

23:                                               ; preds = %8, %5
  br label %24

24:                                               ; preds = %23, %1
  ret void
}

; Function Attrs: nounwind uwtable
define hidden void @ma_mutex_lock(ptr noundef %0) #0 {
  %2 = alloca ptr, align 8
  store ptr %0, ptr %2, align 8
  %3 = load ptr, ptr %2, align 8
  %4 = icmp eq ptr %3, null
  br i1 %4, label %5, label %6

5:                                                ; preds = %1
  br label %8

6:                                                ; preds = %1
  %7 = load ptr, ptr %2, align 8
  call void @ma_mutex_lock__posix(ptr noundef %7)
  br label %8

8:                                                ; preds = %6, %5
  ret void
}

; Function Attrs: nounwind uwtable
define hidden void @StopAudioBuffer(ptr noundef %0) #0 {
  %2 = alloca ptr, align 8
  store ptr %0, ptr %2, align 8
  call void @ma_mutex_lock(ptr noundef getelementptr inbounds nuw (%struct.anon.62, ptr @AUDIO, i32 0, i32 2))
  %3 = load ptr, ptr %2, align 8
  call void @StopAudioBufferInLockedState(ptr noundef %3)
  call void @ma_mutex_unlock(ptr noundef getelementptr inbounds nuw (%struct.anon.62, ptr @AUDIO, i32 0, i32 2))
  ret void
}