; Function Attrs: nounwind uwtable
define hidden void @StopAudioBuffer(ptr noundef captures(address_is_null) %0) local_unnamed_addr #7 {
  %2 = tail call i32 @pthread_mutex_lock(ptr noundef nonnull getelementptr inbounds nuw (i8, ptr @AUDIO, i64 4792)) #72
  %.not.i = icmp eq ptr %0, null
  br i1 %.not.i, label %StopAudioBufferInLockedState.exit, label %3

3:                                                ; preds = %1
  %4 = getelementptr inbounds nuw i8, ptr %0, i64 340
  %5 = load i8, ptr %4, align 4, !range !235, !noundef !192
  %6 = trunc nuw i8 %5 to i1
  br i1 %6, label %IsAudioBufferPlayingInLockedState.exit.i, label %StopAudioBufferInLockedState.exit

IsAudioBufferPlayingInLockedState.exit.i:         ; preds = %3
  %7 = getelementptr inbounds nuw i8, ptr %0, i64 341
  %8 = load i8, ptr %7, align 1, !range !235, !noundef !192
  %9 = trunc nuw i8 %8 to i1
  br i1 %9, label %StopAudioBufferInLockedState.exit, label %10

10:                                               ; preds = %IsAudioBufferPlayingInLockedState.exit.i
  store i8 0, ptr %4, align 4
  store i8 0, ptr %7, align 1
  %11 = getelementptr inbounds nuw i8, ptr %0, i64 356
  store i32 0, ptr %11, align 4
  %12 = getelementptr inbounds nuw i8, ptr %0, i64 360
  store i32 0, ptr %12, align 8
  %13 = getelementptr inbounds nuw i8, ptr %0, i64 348
  store i8 1, ptr %13, align 4
  %14 = getelementptr inbounds nuw i8, ptr %0, i64 349
  store i8 1, ptr %14, align 1
  br label %StopAudioBufferInLockedState.exit

StopAudioBufferInLockedState.exit:                ; preds = %1, %3, %IsAudioBufferPlayingInLockedState.exit.i, %10
  %15 = tail call i32 @pthread_mutex_unlock(ptr noundef nonnull getelementptr inbounds nuw (i8, ptr @AUDIO, i64 4792)) #72
  ret void
}